target datalayout = "e-m:e-p270:32:32-p271:32:32-p272:64:64-i64:64-i128:128-f80:128-n8:16:32:64-S128"
target triple = "x86_64-pc-linux-gnu"

%"class.grpc_core::UniqueTypeName" = type { %"class.std::basic_string_view" }
%"class.std::basic_string_view" = type { i64, ptr }
%"class.std::vector.0" = type { %"struct.std::_Vector_base.1" }
%"struct.std::_Vector_base.1" = type { %"struct.std::_Vector_base<absl::lts_20240722::AnyInvocable<bool (const grpc_core::ChannelArgs &) const>, std::allocator<absl::lts_20240722::AnyInvocable<bool (const grpc_core::ChannelArgs &) const>>>::_Vector_impl" }
%"struct.std::_Vector_base<absl::lts_20240722::AnyInvocable<bool (const grpc_core::ChannelArgs &) const>, std::allocator<absl::lts_20240722::AnyInvocable<bool (const grpc_core::ChannelArgs &) const>>>::_Vector_impl" = type { %"struct.std::_Vector_base<absl::lts_20240722::AnyInvocable<bool (const grpc_core::ChannelArgs &) const>, std::allocator<absl::lts_20240722::AnyInvocable<bool (const grpc_core::ChannelArgs &) const>>>::_Vector_impl_data" }
%"struct.std::_Vector_base<absl::lts_20240722::AnyInvocable<bool (const grpc_core::ChannelArgs &) const>, std::allocator<absl::lts_20240722::AnyInvocable<bool (const grpc_core::ChannelArgs &) const>>>::_Vector_impl_data" = type { ptr, ptr, ptr }
%"class.grpc_core::SourceLocation" = type <{ ptr, i32, [4 x i8] }>
%"class.absl::lts_20240722::AnyInvocable" = type { %"class.absl::lts_20240722::internal_any_invocable::Impl" }
%"class.absl::lts_20240722::internal_any_invocable::Impl" = type { %"class.absl::lts_20240722::internal_any_invocable::CoreImpl" }
%"class.absl::lts_20240722::internal_any_invocable::CoreImpl" = type { %"union.absl::lts_20240722::internal_any_invocable::TypeErasedState", ptr, ptr }
%"union.absl::lts_20240722::internal_any_invocable::TypeErasedState" = type { %struct.anon }
%struct.anon = type { ptr, i64 }
%"struct.grpc_core::ChannelInit::Filter" = type <{ %"class.grpc_core::UniqueTypeName", ptr, ptr, %"class.std::vector.0", %"class.grpc_core::SourceLocation", i8, i8, [6 x i8] }>
%"class.__gnu_cxx::__normal_iterator.66" = type { ptr }

; Function Attrs: mustprogress nounwind uwtable
define linkonce_odr noundef ptr @_ZNK4absl12lts_2024072222internal_any_invocable4ImplIKFbRKN9grpc_core11ChannelArgsEEE14ExtractInvokerEv(ptr noundef nonnull align 16 dereferenceable(32) %0) #6 comdat align 2 {
  %2 = alloca ptr, align 8
  %3 = alloca ptr, align 8
  store ptr %0, ptr %2, align 8, !tbaa !229
  %4 = load ptr, ptr %2, align 8
  call void @llvm.lifetime.start.p0(i64 8, ptr %3) #3
  %5 = getelementptr inbounds nuw %"class.absl::lts_20240722::internal_any_invocable::CoreImpl", ptr %4, i32 0, i32 2
  %6 = load ptr, ptr %5, align 8, !tbaa !270
  store ptr %6, ptr %3, align 8, !tbaa !31
  %7 = load ptr, ptr %3, align 8, !tbaa !31
  call void @llvm.lifetime.end.p0(i64 8, ptr %3) #3
  ret ptr %7
}

; Function Attrs: mustprogress nounwind uwtable
define linkonce_odr noundef nonnull align 8 dereferenceable(8) ptr @_ZNK9__gnu_cxx17__normal_iteratorIPKN4absl12lts_2024072212AnyInvocableIKFbRKN9grpc_core11ChannelArgsEEEESt6vectorIS9_SaIS9_EEE4baseEv(ptr noundef nonnull align 8 dereferenceable(8) %0) #6 comdat align 2 {
  %2 = alloca ptr, align 8
  store ptr %0, ptr %2, align 8, !tbaa !225
  %3 = load ptr, ptr %2, align 8
  %4 = getelementptr inbounds nuw %"class.__gnu_cxx::__normal_iterator.66", ptr %3, i32 0, i32 0
  ret ptr %4
}

; Function Attrs: mustprogress nounwind uwtable
define linkonce_odr void @_ZN9__gnu_cxx17__normal_iteratorIPKN4absl12lts_2024072212AnyInvocableIKFbRKN9grpc_core11ChannelArgsEEEESt6vectorIS9_SaIS9_EEEC2ERKSB_(ptr noundef nonnull align 8 dereferenceable(8) %0, ptr noundef nonnull align 8 dereferenceable(8) %1) unnamed_addr #6 comdat align 2 {
  %3 = alloca ptr, align 8
  %4 = alloca ptr, align 8
  store ptr %0, ptr %3, align 8, !tbaa !225
  store ptr %1, ptr %4, align 8, !tbaa !750
  %5 = load ptr, ptr %3, align 8
  %6 = getelementptr inbounds nuw %"class.__gnu_cxx::__normal_iterator.66", ptr %5, i32 0, i32 0
  %7 = load ptr, ptr %4, align 8, !tbaa !750
  %8 = load ptr, ptr %7, align 8, !tbaa !24
  store ptr %8, ptr %6, align 8, !tbaa !227
  ret void
}

; Function Attrs: mustprogress nounwind uwtable
define linkonce_odr noundef nonnull align 8 dereferenceable(8) ptr @_ZN9__gnu_cxx17__normal_iteratorIPKN4absl12lts_2024072212AnyInvocableIKFbRKN9grpc_core11ChannelArgsEEEESt6vectorIS9_SaIS9_EEEppEv(ptr noundef nonnull align 8 dereferenceable(8) %0) #6 comdat align 2 {
  %2 = alloca ptr, align 8
  store ptr %0, ptr %2, align 8, !tbaa !225
  %3 = load ptr, ptr %2, align 8
  %4 = getelementptr inbounds nuw %"class.__gnu_cxx::__normal_iterator.66", ptr %3, i32 0, i32 0
  %5 = load ptr, ptr %4, align 8, !tbaa !227
  %6 = getelementptr inbounds nuw %"class.absl::lts_20240722::AnyInvocable", ptr %5, i32 1
  store ptr %6, ptr %4, align 8, !tbaa !227
  ret ptr %3
}

; Function Attrs: mustprogress uwtable
define linkonce_odr noundef zeroext i1 @_ZNK4absl12lts_2024072222internal_any_invocable4ImplIKFbRKN9grpc_core11ChannelArgsEEEclES6_(ptr noundef nonnull align 16 dereferenceable(32) %0, ptr noundef nonnull align 8 dereferenceable(8) %1) #4 comdat align 2 {
  %3 = alloca ptr, align 8
  %4 = alloca ptr, align 8
  store ptr %0, ptr %3, align 8, !tbaa !229
  store ptr %1, ptr %4, align 8, !tbaa !223
  %5 = load ptr, ptr %3, align 8
  %6 = call noundef ptr @_ZNK4absl12lts_2024072222internal_any_invocable4ImplIKFbRKN9grpc_core11ChannelArgsEEE14ExtractInvokerEv(ptr noundef nonnull align 16 dereferenceable(32) %5)
  %7 = getelementptr inbounds nuw %"class.absl::lts_20240722::internal_any_invocable::CoreImpl", ptr %5, i32 0, i32 0
  %8 = load ptr, ptr %4, align 8, !tbaa !223
  %9 = call noundef zeroext i1 %6(ptr noundef %7, ptr noundef nonnull align 8 dereferenceable(8) %8)
  ret i1 %9
}

; Function Attrs: mustprogress nounwind uwtable
define linkonce_odr noundef nonnull align 16 dereferenceable(32) ptr @_ZNK9__gnu_cxx17__normal_iteratorIPKN4absl12lts_2024072212AnyInvocableIKFbRKN9grpc_core11ChannelArgsEEEESt6vectorIS9_SaIS9_EEEdeEv(ptr noundef nonnull align 8 dereferenceable(8) %0) #6 comdat align 2 {
  %2 = alloca ptr, align 8
  store ptr %0, ptr %2, align 8, !tbaa !225
  %3 = load ptr, ptr %2, align 8
  %4 = getelementptr inbounds nuw %"class.__gnu_cxx::__normal_iterator.66", ptr %3, i32 0, i32 0
  %5 = load ptr, ptr %4, align 8, !tbaa !227
  ret ptr %5
}

; Function Attrs: inlinehint mustprogress nounwind uwtable
define linkonce_odr noundef zeroext i1 @_ZN9__gnu_cxxneIPKN4absl12lts_2024072212AnyInvocableIKFbRKN9grpc_core11ChannelArgsEEEESt6vectorIS9_SaIS9_EEEEbRKNS_17__normal_iteratorIT_T0_EESK_(ptr noundef nonnull align 8 dereferenceable(8) %0, ptr noundef nonnull align 8 dereferenceable(8) %1) #8 comdat {
  %3 = alloca ptr, align 8
  %4 = alloca ptr, align 8
  store ptr %0, ptr %3, align 8, !tbaa !225
  store ptr %1, ptr %4, align 8, !tbaa !225
  %5 = load ptr, ptr %3, align 8, !tbaa !225
  %6 = call noundef nonnull align 8 dereferenceable(8) ptr @_ZNK9__gnu_cxx17__normal_iteratorIPKN4absl12lts_2024072212AnyInvocableIKFbRKN9grpc_core11ChannelArgsEEEESt6vectorIS9_SaIS9_EEE4baseEv(ptr noundef nonnull align 8 dereferenceable(8) %5) #3
  %7 = load ptr, ptr %6, align 8, !tbaa !24
  %8 = load ptr, ptr %4, align 8, !tbaa !225
  %9 = call noundef nonnull align 8 dereferenceable(8) ptr @_ZNK9__gnu_cxx17__normal_iteratorIPKN4absl12lts_2024072212AnyInvocableIKFbRKN9grpc_core11ChannelArgsEEEESt6vectorIS9_SaIS9_EEE4baseEv(ptr noundef nonnull align 8 dereferenceable(8) %8) #3
  %10 = load ptr, ptr %9, align 8, !tbaa !24
  %11 = icmp ne ptr %7, %10
  ret i1 %11
}

; Function Attrs: mustprogress nounwind uwtable
define linkonce_odr ptr @_ZNKSt6vectorIN4absl12lts_2024072212AnyInvocableIKFbRKN9grpc_core11ChannelArgsEEEESaIS8_EE3endEv(ptr noundef nonnull align 8 dereferenceable(24) %0) #6 comdat align 2 {
  %2 = alloca %"class.__gnu_cxx::__normal_iterator.66", align 8
  %3 = alloca ptr, align 8
  store ptr %0, ptr %3, align 8, !tbaa !26
  %4 = load ptr, ptr %3, align 8
  %5 = getelementptr inbounds nuw %"struct.std::_Vector_base.1", ptr %4, i32 0, i32 0
  %6 = getelementptr inbounds nuw %"struct.std::_Vector_base<absl::lts_20240722::AnyInvocable<bool (const grpc_core::ChannelArgs &) const>, std::allocator<absl::lts_20240722::AnyInvocable<bool (const grpc_core::ChannelArgs &) const>>>::_Vector_impl_data", ptr %5, i32 0, i32 1
  call void @_ZN9__gnu_cxx17__normal_iteratorIPKN4absl12lts_2024072212AnyInvocableIKFbRKN9grpc_core11ChannelArgsEEEESt6vectorIS9_SaIS9_EEEC2ERKSB_(ptr noundef nonnull align 8 dereferenceable(8) %2, ptr noundef nonnull align 8 dereferenceable(8) %6) #3
  %7 = getelementptr inbounds nuw %"class.__gnu_cxx::__normal_iterator.66", ptr %2, i32 0, i32 0
  %8 = load ptr, ptr %7, align 8
  ret ptr %8
}

; Function Attrs: mustprogress nounwind uwtable
define linkonce_odr ptr @_ZNKSt6vectorIN4absl12lts_2024072212AnyInvocableIKFbRKN9grpc_core11ChannelArgsEEEESaIS8_EE5beginEv(ptr noundef nonnull align 8 dereferenceable(24) %0) #6 comdat align 2 {
  %2 = alloca %"class.__gnu_cxx::__normal_iterator.66", align 8
  %3 = alloca ptr, align 8
  store ptr %0, ptr %3, align 8, !tbaa !26
  %4 = load ptr, ptr %3, align 8
  %5 = getelementptr inbounds nuw %"struct.std::_Vector_base.1", ptr %4, i32 0, i32 0
  %6 = getelementptr inbounds nuw %"struct.std::_Vector_base<absl::lts_20240722::AnyInvocable<bool (const grpc_core::ChannelArgs &) const>, std::allocator<absl::lts_20240722::AnyInvocable<bool (const grpc_core::ChannelArgs &) const>>>::_Vector_impl_data", ptr %5, i32 0, i32 0
  call void @_ZN9__gnu_cxx17__normal_iteratorIPKN4absl12lts_2024072212AnyInvocableIKFbRKN9grpc_core11ChannelArgsEEEESt6vectorIS9_SaIS9_EEEC2ERKSB_(ptr noundef nonnull align 8 dereferenceable(8) %2, ptr noundef nonnull align 8 dereferenceable(8) %6) #3
  %7 = getelementptr inbounds nuw %"class.__gnu_cxx::__normal_iterator.66", ptr %2, i32 0, i32 0
  %8 = load ptr, ptr %7, align 8
  ret ptr %8
}

; Function Attrs: mustprogress uwtable
define noundef zeroext i1 @_ZNK9grpc_core11ChannelInit6Filter15CheckPredicatesERKNS_11ChannelArgsE(ptr noundef nonnull align 8 dereferenceable(74) %0, ptr noundef nonnull align 8 dereferenceable(8) %1) #4 align 2 {
  %3 = alloca i1, align 1
  %4 = alloca ptr, align 8
  %5 = alloca ptr, align 8
  %6 = alloca ptr, align 8
  %7 = alloca %"class.__gnu_cxx::__normal_iterator.66", align 8
  %8 = alloca %"class.__gnu_cxx::__normal_iterator.66", align 8
  %9 = alloca i32, align 4
  %10 = alloca ptr, align 8
  store ptr %0, ptr %4, align 8, !tbaa !170
  store ptr %1, ptr %5, align 8, !tbaa !223
  %11 = load ptr, ptr %4, align 8
  call void @llvm.lifetime.start.p0(i64 8, ptr %6) #3
  %12 = getelementptr inbounds nuw %"struct.grpc_core::ChannelInit::Filter", ptr %11, i32 0, i32 3
  store ptr %12, ptr %6, align 8, !tbaa !26
  call void @llvm.lifetime.start.p0(i64 8, ptr %7) #3
  %13 = load ptr, ptr %6, align 8, !tbaa !26
  %14 = call ptr @_ZNKSt6vectorIN4absl12lts_2024072212AnyInvocableIKFbRKN9grpc_core11ChannelArgsEEEESaIS8_EE5beginEv(ptr noundef nonnull align 8 dereferenceable(24) %13) #3
  %15 = getelementptr inbounds nuw %"class.__gnu_cxx::__normal_iterator.66", ptr %7, i32 0, i32 0
  store ptr %14, ptr %15, align 8
  call void @llvm.lifetime.start.p0(i64 8, ptr %8) #3
  %16 = load ptr, ptr %6, align 8, !tbaa !26
  %17 = call ptr @_ZNKSt6vectorIN4absl12lts_2024072212AnyInvocableIKFbRKN9grpc_core11ChannelArgsEEEESaIS8_EE3endEv(ptr noundef nonnull align 8 dereferenceable(24) %16) #3
  %18 = getelementptr inbounds nuw %"class.__gnu_cxx::__normal_iterator.66", ptr %8, i32 0, i32 0
  store ptr %17, ptr %18, align 8
  br label %19

19:                                               ; preds = %32, %2
  %20 = call noundef zeroext i1 @_ZN9__gnu_cxxneIPKN4absl12lts_2024072212AnyInvocableIKFbRKN9grpc_core11ChannelArgsEEEESt6vectorIS9_SaIS9_EEEEbRKNS_17__normal_iteratorIT_T0_EESK_(ptr noundef nonnull align 8 dereferenceable(8) %7, ptr noundef nonnull align 8 dereferenceable(8) %8) #3
  br i1 %20, label %22, label %21

21:                                               ; preds = %19
  store i32 2, ptr %9, align 4
  br label %34

22:                                               ; preds = %19
  call void @llvm.lifetime.start.p0(i64 8, ptr %10) #3
  %23 = call noundef nonnull align 16 dereferenceable(32) ptr @_ZNK9__gnu_cxx17__normal_iteratorIPKN4absl12lts_2024072212AnyInvocableIKFbRKN9grpc_core11ChannelArgsEEEESt6vectorIS9_SaIS9_EEEdeEv(ptr noundef nonnull align 8 dereferenceable(8) %7) #3
  store ptr %23, ptr %10, align 8, !tbaa !24
  %24 = load ptr, ptr %10, align 8, !tbaa !24
  %25 = load ptr, ptr %5, align 8, !tbaa !223
  %26 = call noundef zeroext i1 @_ZNK4absl12lts_2024072222internal_any_invocable4ImplIKFbRKN9grpc_core11ChannelArgsEEEclES6_(ptr noundef nonnull align 16 dereferenceable(32) %24, ptr noundef nonnull align 8 dereferenceable(8) %25)
  br i1 %26, label %28, label %27

27:                                               ; preds = %22
  store i1 false, ptr %3, align 1
  store i32 1, ptr %9, align 4
  br label %29

28:                                               ; preds = %22
  store i32 0, ptr %9, align 4
  br label %29

29:                                               ; preds = %28, %27
  call void @llvm.lifetime.end.p0(i64 8, ptr %10) #3
  %30 = load i32, ptr %9, align 4
  switch i32 %30, label %34 [
    i32 0, label %31
  ]

31:                                               ; preds = %29
  br label %32

32:                                               ; preds = %31
  %33 = call noundef nonnull align 8 dereferenceable(8) ptr @_ZN9__gnu_cxx17__normal_iteratorIPKN4absl12lts_2024072212AnyInvocableIKFbRKN9grpc_core11ChannelArgsEEEESt6vectorIS9_SaIS9_EEEppEv(ptr noundef nonnull align 8 dereferenceable(8) %7) #3
  br label %19

34:                                               ; preds = %29, %21
  call void @llvm.lifetime.end.p0(i64 8, ptr %8) #3
  call void @llvm.lifetime.end.p0(i64 8, ptr %7) #3
  call void @llvm.lifetime.end.p0(i64 8, ptr %6) #3
  %35 = load i32, ptr %9, align 4
  switch i32 %35, label %39 [
    i32 2, label %36
    i32 1, label %37
  ]

36:                                               ; preds = %34
  store i1 true, ptr %3, align 1
  br label %37

37:                                               ; preds = %36, %34
  %38 = load i1, ptr %3, align 1
  ret i1 %38

39:                                               ; preds = %34
  unreachable
}