; Function Attrs: mustprogress uwtable
define noundef zeroext i1 @_ZNK9grpc_core11ChannelInit6Filter15CheckPredicatesERKNS_11ChannelArgsE(ptr noundef nonnull readonly align 8 captures(none) dereferenceable(74) %0, ptr noundef nonnull align 8 dereferenceable(8) %1) local_unnamed_addr #3 align 2 {
  %3 = getelementptr inbounds nuw i8, ptr %0, i64 32
  %4 = load ptr, ptr %3, align 8, !tbaa !264
  %5 = getelementptr inbounds nuw i8, ptr %0, i64 40
  %6 = load ptr, ptr %5, align 8, !tbaa !264
  %.not12 = icmp eq ptr %4, %6
  br i1 %.not12, label %._crit_edge, label %.lr.ph

.lr.ph:                                           ; preds = %2, %.lr.ph
  %.sroa.09.013 = phi ptr [ %10, %.lr.ph ], [ %4, %2 ]
  %7 = getelementptr inbounds nuw i8, ptr %.sroa.09.013, i64 24
  %8 = load ptr, ptr %7, align 8, !tbaa !32
  %9 = tail call noundef zeroext i1 %8(ptr noundef nonnull align 16 dereferenceable(32) %.sroa.09.013, ptr noundef nonnull align 8 dereferenceable(8) %1)
  %10 = getelementptr inbounds nuw i8, ptr %.sroa.09.013, i64 32
  %.not = icmp ne ptr %10, %6
  %or.cond.not = select i1 %9, i1 %.not, i1 false
  br i1 %or.cond.not, label %.lr.ph, label %._crit_edge

._crit_edge:                                      ; preds = %.lr.ph, %2
  %.not.lcssa = phi i1 [ true, %2 ], [ %9, %.lr.ph ]
  ret i1 %.not.lcssa
}